; Function Attrs: nounwind uwtable
define void @blobDestroy(ptr noundef %0) local_unnamed_addr #2 {
  tail call void (ptr, ...) @cli_dbgmsg(ptr noundef nonnull @.str) #16
  %.not = icmp eq ptr %0, null
  br i1 %.not, label %2, label %3

2:                                                ; preds = %1
  tail call void @__assert_fail(ptr noundef nonnull @.str.1, ptr noundef nonnull @.str.2, i32 noundef 86, ptr noundef nonnull @__PRETTY_FUNCTION__.blobDestroy) #17
  unreachable

3:                                                ; preds = %1
  %4 = load ptr, ptr %0, align 8
  %.not8 = icmp eq ptr %4, null
  br i1 %.not8, label %6, label %5

5:                                                ; preds = %3
  tail call void @free(ptr noundef nonnull %4) #16
  br label %6

6:                                                ; preds = %5, %3
  %7 = getelementptr inbounds i8, ptr %0, i64 8
  %8 = load ptr, ptr %7, align 8
  %.not9 = icmp eq ptr %8, null
  br i1 %.not9, label %10, label %9

9:                                                ; preds = %6
  tail call void @free(ptr noundef nonnull %8) #16
  br label %10

10:                                               ; preds = %9, %6
  tail call void @free(ptr noundef nonnull %0) #16
  ret void
}